target datalayout = "e-m:e-p270:32:32-p271:32:32-p272:64:64-i64:64-i128:128-f80:128-n8:16:32:64-S128"
target triple = "x86_64-unknown-linux-gnu"

%"class.icu_75::FunctionReplacer" = type { %"class.icu_75::UnicodeFunctor", %"class.icu_75::UnicodeReplacer", ptr, ptr }
%"class.icu_75::UnicodeFunctor" = type { %"class.icu_75::UObject" }
%"class.icu_75::UObject" = type { ptr }
%"class.icu_75::UnicodeReplacer" = type { ptr }

@_ZTVN6icu_7514UnicodeFunctorE = external unnamed_addr constant { [9 x ptr] }, align 8
@_ZTVN6icu_757UObjectE = external unnamed_addr constant { [5 x ptr] }, align 8
@_ZTVN6icu_7515UnicodeReplacerE = external unnamed_addr constant { [7 x ptr] }, align 8

; Function Attrs: mustprogress nounwind uwtable
define linkonce_odr void @_ZN6icu_757UObjectC2Ev(ptr noundef nonnull align 8 dereferenceable(8) %this) unnamed_addr #0 comdat align 2 {
entry:
  %this.addr = alloca ptr, align 8
  store ptr %this, ptr %this.addr, align 8
  %this1 = load ptr, ptr %this.addr, align 8
  store ptr getelementptr inbounds ({ [5 x ptr] }, ptr @_ZTVN6icu_757UObjectE, i32 0, i32 0, i32 2), ptr %this1, align 8
  ret void
}

; Function Attrs: mustprogress nounwind uwtable
define linkonce_odr void @_ZN6icu_7515UnicodeReplacerC2Ev(ptr noundef nonnull align 8 dereferenceable(8) %this) unnamed_addr #0 comdat align 2 {
entry:
  %this.addr = alloca ptr, align 8
  store ptr %this, ptr %this.addr, align 8
  %this1 = load ptr, ptr %this.addr, align 8
  store ptr getelementptr inbounds ({ [7 x ptr] }, ptr @_ZTVN6icu_7515UnicodeReplacerE, i32 0, i32 0, i32 2), ptr %this1, align 8
  ret void
}

; Function Attrs: mustprogress nounwind uwtable
define linkonce_odr void @_ZN6icu_7514UnicodeFunctorC2Ev(ptr noundef nonnull align 8 dereferenceable(8) %this) unnamed_addr #0 comdat align 2 {
entry:
  %this.addr = alloca ptr, align 8
  store ptr %this, ptr %this.addr, align 8
  %this1 = load ptr, ptr %this.addr, align 8
  call void @_ZN6icu_757UObjectC2Ev(ptr noundef nonnull align 8 dereferenceable(8) %this1) #6
  store ptr getelementptr inbounds ({ [9 x ptr] }, ptr @_ZTVN6icu_7514UnicodeFunctorE, i32 0, i32 0, i32 2), ptr %this1, align 8
  ret void
}

; Function Attrs: mustprogress nounwind uwtable
define void @_ZN6icu_7516FunctionReplacerC2EPNS_14TransliteratorEPNS_14UnicodeFunctorE(ptr noundef nonnull align 8 dereferenceable(32) %this, ptr noundef %adoptedTranslit, ptr noundef %adoptedReplacer) unnamed_addr #0 align 2 {
entry:
  %this.addr = alloca ptr, align 8
  %adoptedTranslit.addr = alloca ptr, align 8
  %adoptedReplacer.addr = alloca ptr, align 8
  store ptr %this, ptr %this.addr, align 8
  store ptr %adoptedTranslit, ptr %adoptedTranslit.addr, align 8
  store ptr %adoptedReplacer, ptr %adoptedReplacer.addr, align 8
  %this1 = load ptr, ptr %this.addr, align 8
  call void @_ZN6icu_7514UnicodeFunctorC2Ev(ptr noundef nonnull align 8 dereferenceable(8) %this1) #6
  %0 = getelementptr inbounds i8, ptr %this1, i64 8
  call void @_ZN6icu_7515UnicodeReplacerC2Ev(ptr noundef nonnull align 8 dereferenceable(8) %0) #6
  store ptr getelementptr inbounds ({ [12 x ptr], [7 x ptr] }, ptr @_ZTVN6icu_7516FunctionReplacerE, i32 0, i32 0, i32 2), ptr %this1, align 8
  %add.ptr = getelementptr inbounds i8, ptr %this1, i64 8
  store ptr getelementptr inbounds ({ [12 x ptr], [7 x ptr] }, ptr @_ZTVN6icu_7516FunctionReplacerE, i32 0, i32 1, i32 2), ptr %add.ptr, align 8
  %1 = load ptr, ptr %adoptedTranslit.addr, align 8
  %translit = getelementptr inbounds %"class.icu_75::FunctionReplacer", ptr %this1, i32 0, i32 2
  store ptr %1, ptr %translit, align 8
  %2 = load ptr, ptr %adoptedReplacer.addr, align 8
  %replacer = getelementptr inbounds %"class.icu_75::FunctionReplacer", ptr %this1, i32 0, i32 3
  store ptr %2, ptr %replacer, align 8
  ret void
}