; Function Attrs: mustprogress nofree norecurse nosync nounwind willreturn memory(argmem: write) uwtable
define void @_ZN6icu_7516FunctionReplacerC2EPNS_14TransliteratorEPNS_14UnicodeFunctorE(ptr nocapture noundef nonnull writeonly align 8 dereferenceable(32) %this, ptr noundef %adoptedTranslit, ptr noundef %adoptedReplacer) unnamed_addr #1 align 2 {
entry:
  %0 = getelementptr inbounds i8, ptr %this, i64 8
  store ptr getelementptr inbounds ({ [12 x ptr], [7 x ptr] }, ptr @_ZTVN6icu_7516FunctionReplacerE, i64 0, i32 0, i64 2), ptr %this, align 8
  store ptr getelementptr inbounds ({ [12 x ptr], [7 x ptr] }, ptr @_ZTVN6icu_7516FunctionReplacerE, i64 0, i32 1, i64 2), ptr %0, align 8
  %translit = getelementptr inbounds i8, ptr %this, i64 16
  store ptr %adoptedTranslit, ptr %translit, align 8
  %replacer = getelementptr inbounds i8, ptr %this, i64 24
  store ptr %adoptedReplacer, ptr %replacer, align 8
  ret void
}